; Function Attrs: nounwind uwtable
define internal ptr @lxb_html_tokenizer_state_comment_end_dash(ptr noundef %0, ptr noundef readonly %1, ptr noundef readnone %2) #0 {
  %4 = load i8, ptr %1, align 1
  switch i8 %4, label %39 [
    i8 45, label %5
    i8 0, label %7
  ]

5:                                                ; preds = %3
  store ptr @lxb_html_tokenizer_state_comment_end, ptr %0, align 8
  %6 = getelementptr inbounds i8, ptr %1, i64 1
  br label %63

7:                                                ; preds = %3
  %8 = getelementptr inbounds i8, ptr %0, i64 236
  %9 = load i8, ptr %8, align 4
  %10 = and i8 %9, 1
  %.not = icmp eq i8 %10, 0
  br i1 %.not, label %39, label %11

11:                                               ; preds = %7
  %12 = getelementptr inbounds i8, ptr %0, i64 88
  %13 = load ptr, ptr %12, align 8
  %14 = getelementptr inbounds i8, ptr %0, i64 160
  %15 = load ptr, ptr %14, align 8
  %16 = tail call ptr @lxb_html_tokenizer_error_add(ptr noundef %13, ptr noundef %15, i32 noundef 13) #5
  %17 = getelementptr inbounds i8, ptr %0, i64 128
  %18 = load ptr, ptr %17, align 8
  %19 = getelementptr inbounds i8, ptr %0, i64 64
  %20 = load ptr, ptr %19, align 8
  %21 = getelementptr inbounds i8, ptr %20, i64 32
  store ptr %18, ptr %21, align 8
  %22 = getelementptr inbounds i8, ptr %0, i64 136
  %23 = load ptr, ptr %22, align 8
  %24 = load ptr, ptr %19, align 8
  %25 = getelementptr inbounds i8, ptr %24, i64 40
  store ptr %23, ptr %25, align 8
  %26 = getelementptr inbounds i8, ptr %0, i64 16
  %27 = load ptr, ptr %26, align 8
  %28 = load ptr, ptr %19, align 8
  %29 = getelementptr inbounds i8, ptr %0, i64 24
  %30 = load ptr, ptr %29, align 8
  %31 = tail call ptr %27(ptr noundef nonnull %0, ptr noundef %28, ptr noundef %30) #5
  store ptr %31, ptr %19, align 8
  %32 = icmp eq ptr %31, null
  br i1 %32, label %33, label %38

33:                                               ; preds = %11
  %34 = getelementptr inbounds i8, ptr %0, i64 232
  %35 = load i32, ptr %34, align 8
  %36 = icmp eq i32 %35, 0
  br i1 %36, label %37, label %63

37:                                               ; preds = %33
  store i32 1, ptr %34, align 8
  br label %63

38:                                               ; preds = %11
  tail call void @llvm.memset.p0.i64(ptr noundef nonnull align 8 dereferenceable(96) %31, i8 0, i64 96, i1 false)
  br label %63

39:                                               ; preds = %3, %7
  %40 = getelementptr inbounds i8, ptr %0, i64 136
  %41 = load ptr, ptr %40, align 8
  %42 = getelementptr inbounds i8, ptr %41, i64 1
  %43 = getelementptr inbounds i8, ptr %0, i64 144
  %44 = load ptr, ptr %43, align 8
  %45 = icmp ugt ptr %42, %44
  br i1 %45, label %46, label %60

46:                                               ; preds = %39
  %47 = getelementptr inbounds i8, ptr %0, i64 128
  %48 = load ptr, ptr %47, align 8
  %49 = ptrtoint ptr %48 to i64
  %50 = ptrtoint ptr %44 to i64
  %51 = add i64 %50, 4097
  %52 = sub i64 %51, %49
  %53 = tail call ptr @lexbor_realloc(ptr noundef %48, i64 noundef %52) #5
  store ptr %53, ptr %47, align 8
  %54 = icmp eq ptr %53, null
  br i1 %54, label %lxb_html_tokenizer_temp_append.exit, label %lxb_html_tokenizer_temp_realloc.exit.thread.i

lxb_html_tokenizer_temp_realloc.exit.thread.i:    ; preds = %46
  %55 = ptrtoint ptr %41 to i64
  %56 = sub i64 %55, %49
  %57 = getelementptr inbounds i8, ptr %53, i64 %56
  %58 = getelementptr inbounds i8, ptr %53, i64 %52
  store ptr %58, ptr %43, align 8
  br label %60

lxb_html_tokenizer_temp_append.exit:              ; preds = %46
  %59 = getelementptr inbounds i8, ptr %0, i64 232
  store i32 2, ptr %59, align 8
  br label %63

60:                                               ; preds = %39, %lxb_html_tokenizer_temp_realloc.exit.thread.i
  %61 = phi ptr [ %57, %lxb_html_tokenizer_temp_realloc.exit.thread.i ], [ %41, %39 ]
  store i8 45, ptr %61, align 1
  %62 = getelementptr inbounds i8, ptr %61, i64 1
  store ptr %62, ptr %40, align 8
  store ptr @lxb_html_tokenizer_state_comment, ptr %0, align 8
  br label %63

63:                                               ; preds = %lxb_html_tokenizer_temp_append.exit, %33, %37, %60, %38, %5
  %.0 = phi ptr [ %6, %5 ], [ %2, %38 ], [ %1, %60 ], [ %2, %37 ], [ %2, %33 ], [ %2, %lxb_html_tokenizer_temp_append.exit ]
  ret ptr %.0
}